target datalayout = "e-m:e-p270:32:32-p271:32:32-p272:64:64-i64:64-i128:128-f80:128-n8:16:32:64-S128"
target triple = "x86_64-unknown-linux-gnu"

%"class.icu_75::RBBIDataWrapper" = type <{ ptr, ptr, ptr, ptr, ptr, i32, [4 x i8], ptr, %"struct.std::atomic", [4 x i8], ptr, %"class.icu_75::UnicodeString", i8, [7 x i8] }>
%"struct.std::atomic" = type { %"struct.std::__atomic_base" }
%"struct.std::__atomic_base" = type { i32 }
%"class.icu_75::UnicodeString" = type { %"class.icu_75::Replaceable", %"union.icu_75::UnicodeString::StackBufferOrFields" }
%"class.icu_75::Replaceable" = type { %"class.icu_75::UObject" }
%"class.icu_75::UObject" = type { ptr }
%"union.icu_75::UnicodeString::StackBufferOrFields" = type { %struct.anon.0, [32 x i8] }
%struct.anon.0 = type { i16, i32, i32, ptr }
%"class.icu_75::StringPiece" = type <{ ptr, i32, [4 x i8] }>
%"struct.icu_75::RBBIDataHeader" = type { i32, [4 x i8], i32, i32, i32, i32, i32, i32, i32, i32, i32, i32, i32, i32, [6 x i32] }

@_ZN6icu_75L24RBBI_DATA_FORMAT_VERSIONE = internal constant [4 x i8] c"\06\00\00\00", align 1

; Function Attrs: noreturn nounwind uwtable
define linkonce_odr hidden void @__clang_call_terminate(ptr noundef %0) #4 comdat {
  %2 = call ptr @__cxa_begin_catch(ptr %0) #8
  call void @_ZSt9terminatev() #9
  unreachable
}

; Function Attrs: mustprogress nounwind uwtable
define linkonce_odr noundef i32 @_ZStanSt12memory_orderSt23__memory_order_modifier(i32 noundef %__m, i32 noundef %__mod) #1 comdat {
entry:
  %__m.addr = alloca i32, align 4
  %__mod.addr = alloca i32, align 4
  store i32 %__m, ptr %__m.addr, align 4
  store i32 %__mod, ptr %__mod.addr, align 4
  %0 = load i32, ptr %__m.addr, align 4
  %1 = load i32, ptr %__mod.addr, align 4
  %and = and i32 %0, %1
  ret i32 %and
}

; Function Attrs: mustprogress nounwind uwtable
define linkonce_odr noundef i32 @_ZNSt13__atomic_baseIiEaSEi(ptr noundef nonnull align 4 dereferenceable(4) %this, i32 noundef %__i) #1 comdat align 2 personality ptr @__gxx_personality_v0 {
entry:
  %this.addr.i = alloca ptr, align 8
  %__i.addr.i = alloca i32, align 4
  %__m.addr.i = alloca i32, align 4
  %__b.i = alloca i32, align 4
  %.atomictmp.i = alloca i32, align 4
  %this.addr = alloca ptr, align 8
  %__i.addr = alloca i32, align 4
  store ptr %this, ptr %this.addr, align 8
  store i32 %__i, ptr %__i.addr, align 4
  %this1 = load ptr, ptr %this.addr, align 8
  %0 = load i32, ptr %__i.addr, align 4
  store ptr %this1, ptr %this.addr.i, align 8
  store i32 %0, ptr %__i.addr.i, align 4
  store i32 5, ptr %__m.addr.i, align 4
  %this1.i = load ptr, ptr %this.addr.i, align 8
  %1 = load i32, ptr %__m.addr.i, align 4
  %call.i = invoke noundef i32 @_ZStanSt12memory_orderSt23__memory_order_modifier(i32 noundef %1, i32 noundef 65535)
          to label %invoke.cont.i unwind label %terminate.lpad.i

invoke.cont.i:                                    ; preds = %entry
  store i32 %call.i, ptr %__b.i, align 4
  %2 = load i32, ptr %__m.addr.i, align 4
  %3 = load i32, ptr %__i.addr.i, align 4
  store i32 %3, ptr %.atomictmp.i, align 4
  switch i32 %2, label %monotonic.i [
    i32 3, label %release.i
    i32 5, label %seqcst.i
  ]

monotonic.i:                                      ; preds = %invoke.cont.i
  %4 = load i32, ptr %.atomictmp.i, align 4
  store atomic i32 %4, ptr %this1.i monotonic, align 4
  br label %_ZNSt13__atomic_baseIiE5storeEiSt12memory_order.exit

release.i:                                        ; preds = %invoke.cont.i
  %5 = load i32, ptr %.atomictmp.i, align 4
  store atomic i32 %5, ptr %this1.i release, align 4
  br label %_ZNSt13__atomic_baseIiE5storeEiSt12memory_order.exit

seqcst.i:                                         ; preds = %invoke.cont.i
  %6 = load i32, ptr %.atomictmp.i, align 4
  store atomic i32 %6, ptr %this1.i seq_cst, align 4
  br label %_ZNSt13__atomic_baseIiE5storeEiSt12memory_order.exit

terminate.lpad.i:                                 ; preds = %entry
  %7 = landingpad { ptr, i32 }
          catch ptr null
  %8 = extractvalue { ptr, i32 } %7, 0
  call void @__clang_call_terminate(ptr %8) #9
  unreachable

_ZNSt13__atomic_baseIiE5storeEiSt12memory_order.exit: ; preds = %seqcst.i, %release.i, %monotonic.i
  %9 = load i32, ptr %__i.addr, align 4
  ret i32 %9
}

; Function Attrs: mustprogress nounwind uwtable
define linkonce_odr void @_ZN6icu_7511StringPieceC2EPKci(ptr noundef nonnull align 8 dereferenceable(12) %this, ptr noundef %offset, i32 noundef %len) unnamed_addr #1 comdat align 2 {
entry:
  %this.addr = alloca ptr, align 8
  %offset.addr = alloca ptr, align 8
  %len.addr = alloca i32, align 4
  store ptr %this, ptr %this.addr, align 8
  store ptr %offset, ptr %offset.addr, align 8
  store i32 %len, ptr %len.addr, align 4
  %this1 = load ptr, ptr %this.addr, align 8
  %ptr_ = getelementptr inbounds %"class.icu_75::StringPiece", ptr %this1, i32 0, i32 0
  %0 = load ptr, ptr %offset.addr, align 8
  store ptr %0, ptr %ptr_, align 8
  %length_ = getelementptr inbounds %"class.icu_75::StringPiece", ptr %this1, i32 0, i32 1
  %1 = load i32, ptr %len.addr, align 4
  store i32 %1, ptr %length_, align 8
  ret void
}

; Function Attrs: mustprogress nounwind uwtable
define noundef signext i8 @_ZN6icu_7515RBBIDataWrapper23isDataVersionAcceptableEPKh(ptr noundef %version) #1 align 2 {
entry:
  %version.addr = alloca ptr, align 8
  store ptr %version, ptr %version.addr, align 8
  %0 = load i8, ptr @_ZN6icu_75L24RBBI_DATA_FORMAT_VERSIONE, align 1
  %conv = zext i8 %0 to i32
  %1 = load ptr, ptr %version.addr, align 8
  %arrayidx = getelementptr inbounds i8, ptr %1, i64 0
  %2 = load i8, ptr %arrayidx, align 1
  %conv1 = zext i8 %2 to i32
  %cmp = icmp eq i32 %conv, %conv1
  %conv2 = zext i1 %cmp to i8
  ret i8 %conv2
}

; Function Attrs: mustprogress nounwind uwtable
define internal noundef signext i8 @_ZL9U_FAILURE10UErrorCode(i32 noundef %code) #1 {
entry:
  %code.addr = alloca i32, align 4
  store i32 %code, ptr %code.addr, align 4
  %0 = load i32, ptr %code.addr, align 4
  %cmp = icmp sgt i32 %0, 0
  %conv = zext i1 %cmp to i8
  ret i8 %conv
}

; Function Attrs: mustprogress uwtable
define void @_ZN6icu_7515RBBIDataWrapper4initEPKNS_14RBBIDataHeaderER10UErrorCode(ptr noundef nonnull align 8 dereferenceable(137) %this, ptr noundef %data, ptr noundef nonnull align 4 dereferenceable(4) %status) #0 align 2 {
entry:
  %this.addr = alloca ptr, align 8
  %data.addr = alloca ptr, align 8
  %status.addr = alloca ptr, align 8
  %width = alloca i32, align 4
  %ref.tmp = alloca %"class.icu_75::UnicodeString", align 8
  %agg.tmp = alloca %"class.icu_75::StringPiece", align 8
  store ptr %this, ptr %this.addr, align 8
  store ptr %data, ptr %data.addr, align 8
  store ptr %status, ptr %status.addr, align 8
  %this1 = load ptr, ptr %this.addr, align 8
  %0 = load ptr, ptr %status.addr, align 8
  %1 = load i32, ptr %0, align 4
  %call = call noundef signext i8 @_ZL9U_FAILURE10UErrorCode(i32 noundef %1)
  %tobool = icmp ne i8 %call, 0
  br i1 %tobool, label %if.then, label %if.end

if.then:                                          ; preds = %entry
  br label %return

if.end:                                           ; preds = %entry
  %2 = load ptr, ptr %data.addr, align 8
  %fHeader = getelementptr inbounds %"class.icu_75::RBBIDataWrapper", ptr %this1, i32 0, i32 0
  store ptr %2, ptr %fHeader, align 8
  %fHeader2 = getelementptr inbounds %"class.icu_75::RBBIDataWrapper", ptr %this1, i32 0, i32 0
  %3 = load ptr, ptr %fHeader2, align 8
  %fMagic = getelementptr inbounds %"struct.icu_75::RBBIDataHeader", ptr %3, i32 0, i32 0
  %4 = load i32, ptr %fMagic, align 4
  %cmp = icmp ne i32 %4, 45472
  br i1 %cmp, label %if.then6, label %lor.lhs.false

lor.lhs.false:                                    ; preds = %if.end
  %fHeader3 = getelementptr inbounds %"class.icu_75::RBBIDataWrapper", ptr %this1, i32 0, i32 0
  %5 = load ptr, ptr %fHeader3, align 8
  %fFormatVersion = getelementptr inbounds %"struct.icu_75::RBBIDataHeader", ptr %5, i32 0, i32 1
  %arraydecay = getelementptr inbounds [4 x i8], ptr %fFormatVersion, i64 0, i64 0
  %call4 = call noundef signext i8 @_ZN6icu_7515RBBIDataWrapper23isDataVersionAcceptableEPKh(ptr noundef %arraydecay)
  %tobool5 = icmp ne i8 %call4, 0
  br i1 %tobool5, label %if.end7, label %if.then6

if.then6:                                         ; preds = %lor.lhs.false, %if.end
  %6 = load ptr, ptr %status.addr, align 8
  store i32 3, ptr %6, align 4
  br label %return

if.end7:                                          ; preds = %lor.lhs.false
  %fDontFreeData = getelementptr inbounds %"class.icu_75::RBBIDataWrapper", ptr %this1, i32 0, i32 12
  store i8 0, ptr %fDontFreeData, align 8
  %7 = load ptr, ptr %data.addr, align 8
  %fFTableLen = getelementptr inbounds %"struct.icu_75::RBBIDataHeader", ptr %7, i32 0, i32 5
  %8 = load i32, ptr %fFTableLen, align 4
  %cmp8 = icmp ne i32 %8, 0
  br i1 %cmp8, label %if.then9, label %if.end11

if.then9:                                         ; preds = %if.end7
  %9 = load ptr, ptr %data.addr, align 8
  %fHeader10 = getelementptr inbounds %"class.icu_75::RBBIDataWrapper", ptr %this1, i32 0, i32 0
  %10 = load ptr, ptr %fHeader10, align 8
  %fFTable = getelementptr inbounds %"struct.icu_75::RBBIDataHeader", ptr %10, i32 0, i32 4
  %11 = load i32, ptr %fFTable, align 4
  %idx.ext = zext i32 %11 to i64
  %add.ptr = getelementptr inbounds i8, ptr %9, i64 %idx.ext
  %fForwardTable = getelementptr inbounds %"class.icu_75::RBBIDataWrapper", ptr %this1, i32 0, i32 1
  store ptr %add.ptr, ptr %fForwardTable, align 8
  br label %if.end11

if.end11:                                         ; preds = %if.then9, %if.end7
  %12 = load ptr, ptr %data.addr, align 8
  %fRTableLen = getelementptr inbounds %"struct.icu_75::RBBIDataHeader", ptr %12, i32 0, i32 7
  %13 = load i32, ptr %fRTableLen, align 4
  %cmp12 = icmp ne i32 %13, 0
  br i1 %cmp12, label %if.then13, label %if.end17

if.then13:                                        ; preds = %if.end11
  %14 = load ptr, ptr %data.addr, align 8
  %fHeader14 = getelementptr inbounds %"class.icu_75::RBBIDataWrapper", ptr %this1, i32 0, i32 0
  %15 = load ptr, ptr %fHeader14, align 8
  %fRTable = getelementptr inbounds %"struct.icu_75::RBBIDataHeader", ptr %15, i32 0, i32 6
  %16 = load i32, ptr %fRTable, align 4
  %idx.ext15 = zext i32 %16 to i64
  %add.ptr16 = getelementptr inbounds i8, ptr %14, i64 %idx.ext15
  %fReverseTable = getelementptr inbounds %"class.icu_75::RBBIDataWrapper", ptr %this1, i32 0, i32 2
  store ptr %add.ptr16, ptr %fReverseTable, align 8
  br label %if.end17

if.end17:                                         ; preds = %if.then13, %if.end11
  %17 = load ptr, ptr %data.addr, align 8
  %fHeader18 = getelementptr inbounds %"class.icu_75::RBBIDataWrapper", ptr %this1, i32 0, i32 0
  %18 = load ptr, ptr %fHeader18, align 8
  %fTrie = getelementptr inbounds %"struct.icu_75::RBBIDataHeader", ptr %18, i32 0, i32 8
  %19 = load i32, ptr %fTrie, align 4
  %idx.ext19 = zext i32 %19 to i64
  %add.ptr20 = getelementptr inbounds i8, ptr %17, i64 %idx.ext19
  %fHeader21 = getelementptr inbounds %"class.icu_75::RBBIDataWrapper", ptr %this1, i32 0, i32 0
  %20 = load ptr, ptr %fHeader21, align 8
  %fTrieLen = getelementptr inbounds %"struct.icu_75::RBBIDataHeader", ptr %20, i32 0, i32 9
  %21 = load i32, ptr %fTrieLen, align 4
  %22 = load ptr, ptr %status.addr, align 8
  %call22 = call ptr @ucptrie_openFromBinary_75(i32 noundef 0, i32 noundef -1, ptr noundef %add.ptr20, i32 noundef %21, ptr noundef null, ptr noundef %22)
  %fTrie23 = getelementptr inbounds %"class.icu_75::RBBIDataWrapper", ptr %this1, i32 0, i32 7
  store ptr %call22, ptr %fTrie23, align 8
  %23 = load ptr, ptr %status.addr, align 8
  %24 = load i32, ptr %23, align 4
  %call24 = call noundef signext i8 @_ZL9U_FAILURE10UErrorCode(i32 noundef %24)
  %tobool25 = icmp ne i8 %call24, 0
  br i1 %tobool25, label %if.then26, label %if.end27

if.then26:                                        ; preds = %if.end17
  br label %return

if.end27:                                         ; preds = %if.end17
  %fTrie28 = getelementptr inbounds %"class.icu_75::RBBIDataWrapper", ptr %this1, i32 0, i32 7
  %25 = load ptr, ptr %fTrie28, align 8
  %call29 = call i32 @ucptrie_getValueWidth_75(ptr noundef %25)
  store i32 %call29, ptr %width, align 4
  %26 = load i32, ptr %width, align 4
  %cmp30 = icmp eq i32 %26, 2
  br i1 %cmp30, label %if.end34, label %lor.lhs.false31

lor.lhs.false31:                                  ; preds = %if.end27
  %27 = load i32, ptr %width, align 4
  %cmp32 = icmp eq i32 %27, 0
  br i1 %cmp32, label %if.end34, label %if.then33

if.then33:                                        ; preds = %lor.lhs.false31
  %28 = load ptr, ptr %status.addr, align 8
  store i32 3, ptr %28, align 4
  br label %return

if.end34:                                         ; preds = %lor.lhs.false31, %if.end27
  %29 = load ptr, ptr %data.addr, align 8
  %fHeader35 = getelementptr inbounds %"class.icu_75::RBBIDataWrapper", ptr %this1, i32 0, i32 0
  %30 = load ptr, ptr %fHeader35, align 8
  %fRuleSource = getelementptr inbounds %"struct.icu_75::RBBIDataHeader", ptr %30, i32 0, i32 10
  %31 = load i32, ptr %fRuleSource, align 4
  %idx.ext36 = zext i32 %31 to i64
  %add.ptr37 = getelementptr inbounds i8, ptr %29, i64 %idx.ext36
  %fRuleSource38 = getelementptr inbounds %"class.icu_75::RBBIDataWrapper", ptr %this1, i32 0, i32 3
  store ptr %add.ptr37, ptr %fRuleSource38, align 8
  %fRuleSource39 = getelementptr inbounds %"class.icu_75::RBBIDataWrapper", ptr %this1, i32 0, i32 3
  %32 = load ptr, ptr %fRuleSource39, align 8
  %fHeader40 = getelementptr inbounds %"class.icu_75::RBBIDataWrapper", ptr %this1, i32 0, i32 0
  %33 = load ptr, ptr %fHeader40, align 8
  %fRuleSourceLen = getelementptr inbounds %"struct.icu_75::RBBIDataHeader", ptr %33, i32 0, i32 11
  %34 = load i32, ptr %fRuleSourceLen, align 4
  call void @_ZN6icu_7511StringPieceC2EPKci(ptr noundef nonnull align 8 dereferenceable(12) %agg.tmp, ptr noundef %32, i32 noundef %34)
  %35 = getelementptr inbounds { ptr, i32 }, ptr %agg.tmp, i32 0, i32 0
  %36 = load ptr, ptr %35, align 8
  %37 = getelementptr inbounds { ptr, i32 }, ptr %agg.tmp, i32 0, i32 1
  %38 = load i32, ptr %37, align 8
  call void @_ZN6icu_7513UnicodeString8fromUTF8ENS_11StringPieceE(ptr sret(%"class.icu_75::UnicodeString") align 8 %ref.tmp, ptr %36, i32 %38)
  %fRuleString = getelementptr inbounds %"class.icu_75::RBBIDataWrapper", ptr %this1, i32 0, i32 11
  %call41 = call noundef nonnull align 8 dereferenceable(64) ptr @_ZN6icu_7513UnicodeStringaSEOS0_(ptr noundef nonnull align 8 dereferenceable(64) %fRuleString, ptr noundef nonnull align 8 dereferenceable(64) %ref.tmp) #8
  call void @_ZN6icu_7513UnicodeStringD1Ev(ptr noundef nonnull align 8 dereferenceable(64) %ref.tmp) #8
  %39 = load ptr, ptr %data.addr, align 8
  %fHeader42 = getelementptr inbounds %"class.icu_75::RBBIDataWrapper", ptr %this1, i32 0, i32 0
  %40 = load ptr, ptr %fHeader42, align 8
  %fStatusTable = getelementptr inbounds %"struct.icu_75::RBBIDataHeader", ptr %40, i32 0, i32 12
  %41 = load i32, ptr %fStatusTable, align 4
  %idx.ext43 = zext i32 %41 to i64
  %add.ptr44 = getelementptr inbounds i8, ptr %39, i64 %idx.ext43
  %fRuleStatusTable = getelementptr inbounds %"class.icu_75::RBBIDataWrapper", ptr %this1, i32 0, i32 4
  store ptr %add.ptr44, ptr %fRuleStatusTable, align 8
  %42 = load ptr, ptr %data.addr, align 8
  %fStatusTableLen = getelementptr inbounds %"struct.icu_75::RBBIDataHeader", ptr %42, i32 0, i32 13
  %43 = load i32, ptr %fStatusTableLen, align 4
  %conv = zext i32 %43 to i64
  %div = udiv i64 %conv, 4
  %conv45 = trunc i64 %div to i32
  %fStatusMaxIdx = getelementptr inbounds %"class.icu_75::RBBIDataWrapper", ptr %this1, i32 0, i32 5
  store i32 %conv45, ptr %fStatusMaxIdx, align 8
  %fRefCount = getelementptr inbounds %"class.icu_75::RBBIDataWrapper", ptr %this1, i32 0, i32 8
  %call46 = call noundef i32 @_ZNSt13__atomic_baseIiEaSEi(ptr noundef nonnull align 4 dereferenceable(4) %fRefCount, i32 noundef 1) #8
  br label %return

return:                                           ; preds = %if.end34, %if.then33, %if.then26, %if.then6, %if.then
  ret void
}