; Function Attrs: mustprogress uwtable
define void @_ZN6icu_7515RBBIDataWrapper4initEPKNS_14RBBIDataHeaderER10UErrorCode(ptr noundef nonnull align 8 dereferenceable(137) %this, ptr noundef %data, ptr noundef nonnull align 4 dereferenceable(4) %status) local_unnamed_addr #0 align 2 personality ptr @__gxx_personality_v0 {
entry:
  %ref.tmp = alloca %"class.icu_75::UnicodeString", align 8
  %0 = load i32, ptr %status, align 4
  %cmp.i = icmp slt i32 %0, 1
  br i1 %cmp.i, label %if.end, label %return

if.end:                                           ; preds = %entry
  store ptr %data, ptr %this, align 8
  %1 = load i32, ptr %data, align 4
  %cmp.not = icmp eq i32 %1, 45472
  br i1 %cmp.not, label %lor.lhs.false, label %if.then6

lor.lhs.false:                                    ; preds = %if.end
  %fFormatVersion = getelementptr inbounds i8, ptr %data, i64 4
  %2 = load i8, ptr %fFormatVersion, align 1
  %cmp.i14.not = icmp eq i8 %2, 6
  br i1 %cmp.i14.not, label %if.end7, label %if.then6

if.then6:                                         ; preds = %lor.lhs.false, %if.end
  store i32 3, ptr %status, align 4
  br label %return

if.end7:                                          ; preds = %lor.lhs.false
  %fDontFreeData = getelementptr inbounds i8, ptr %this, i64 136
  store i8 0, ptr %fDontFreeData, align 8
  %fFTableLen = getelementptr inbounds i8, ptr %data, i64 20
  %3 = load i32, ptr %fFTableLen, align 4
  %cmp8.not = icmp eq i32 %3, 0
  br i1 %cmp8.not, label %if.end11, label %if.then9

if.then9:                                         ; preds = %if.end7
  %fFTable = getelementptr inbounds i8, ptr %data, i64 16
  %4 = load i32, ptr %fFTable, align 4
  %idx.ext = zext i32 %4 to i64
  %add.ptr = getelementptr inbounds i8, ptr %data, i64 %idx.ext
  %fForwardTable = getelementptr inbounds i8, ptr %this, i64 8
  store ptr %add.ptr, ptr %fForwardTable, align 8
  br label %if.end11

if.end11:                                         ; preds = %if.then9, %if.end7
  %fRTableLen = getelementptr inbounds i8, ptr %data, i64 28
  %5 = load i32, ptr %fRTableLen, align 4
  %cmp12.not = icmp eq i32 %5, 0
  br i1 %cmp12.not, label %if.end17, label %if.then13

if.then13:                                        ; preds = %if.end11
  %fRTable = getelementptr inbounds i8, ptr %data, i64 24
  %6 = load i32, ptr %fRTable, align 4
  %idx.ext15 = zext i32 %6 to i64
  %add.ptr16 = getelementptr inbounds i8, ptr %data, i64 %idx.ext15
  %fReverseTable = getelementptr inbounds i8, ptr %this, i64 16
  store ptr %add.ptr16, ptr %fReverseTable, align 8
  br label %if.end17

if.end17:                                         ; preds = %if.then13, %if.end11
  %fTrie = getelementptr inbounds i8, ptr %data, i64 32
  %7 = load i32, ptr %fTrie, align 4
  %idx.ext19 = zext i32 %7 to i64
  %add.ptr20 = getelementptr inbounds i8, ptr %data, i64 %idx.ext19
  %fTrieLen = getelementptr inbounds i8, ptr %data, i64 36
  %8 = load i32, ptr %fTrieLen, align 4
  %call22 = tail call ptr @ucptrie_openFromBinary_75(i32 noundef 0, i32 noundef -1, ptr noundef nonnull %add.ptr20, i32 noundef %8, ptr noundef null, ptr noundef nonnull %status)
  %fTrie23 = getelementptr inbounds i8, ptr %this, i64 48
  store ptr %call22, ptr %fTrie23, align 8
  %9 = load i32, ptr %status, align 4
  %cmp.i15 = icmp slt i32 %9, 1
  br i1 %cmp.i15, label %if.end27, label %return

if.end27:                                         ; preds = %if.end17
  %call29 = tail call i32 @ucptrie_getValueWidth_75(ptr noundef %call22)
  %10 = and i32 %call29, -3
  %or.cond = icmp eq i32 %10, 0
  br i1 %or.cond, label %if.end34, label %if.then33

if.then33:                                        ; preds = %if.end27
  store i32 3, ptr %status, align 4
  br label %return

if.end34:                                         ; preds = %if.end27
  %11 = load ptr, ptr %this, align 8
  %fRuleSource = getelementptr inbounds i8, ptr %11, i64 40
  %12 = load i32, ptr %fRuleSource, align 4
  %idx.ext36 = zext i32 %12 to i64
  %add.ptr37 = getelementptr inbounds i8, ptr %data, i64 %idx.ext36
  %fRuleSource38 = getelementptr inbounds i8, ptr %this, i64 24
  store ptr %add.ptr37, ptr %fRuleSource38, align 8
  %fRuleSourceLen = getelementptr inbounds i8, ptr %11, i64 44
  %13 = load i32, ptr %fRuleSourceLen, align 4
  call void @_ZN6icu_7513UnicodeString8fromUTF8ENS_11StringPieceE(ptr nonnull sret(%"class.icu_75::UnicodeString") align 8 %ref.tmp, ptr nonnull %add.ptr37, i32 %13)
  %fRuleString = getelementptr inbounds i8, ptr %this, i64 72
  %call41 = call noundef nonnull align 8 dereferenceable(64) ptr @_ZN6icu_7513UnicodeStringaSEOS0_(ptr noundef nonnull align 8 dereferenceable(64) %fRuleString, ptr noundef nonnull align 8 dereferenceable(64) %ref.tmp) #13
  call void @_ZN6icu_7513UnicodeStringD1Ev(ptr noundef nonnull align 8 dereferenceable(64) %ref.tmp) #13
  %14 = load ptr, ptr %this, align 8
  %fStatusTable = getelementptr inbounds i8, ptr %14, i64 48
  %15 = load i32, ptr %fStatusTable, align 4
  %idx.ext43 = zext i32 %15 to i64
  %add.ptr44 = getelementptr inbounds i8, ptr %data, i64 %idx.ext43
  %fRuleStatusTable = getelementptr inbounds i8, ptr %this, i64 32
  store ptr %add.ptr44, ptr %fRuleStatusTable, align 8
  %fStatusTableLen = getelementptr inbounds i8, ptr %data, i64 52
  %16 = load i32, ptr %fStatusTableLen, align 4
  %17 = lshr i32 %16, 2
  %fStatusMaxIdx = getelementptr inbounds i8, ptr %this, i64 40
  store i32 %17, ptr %fStatusMaxIdx, align 8
  %fRefCount = getelementptr inbounds i8, ptr %this, i64 56
  store atomic i32 1, ptr %fRefCount seq_cst, align 8
  br label %return

return:                                           ; preds = %if.end17, %entry, %if.end34, %if.then33, %if.then6
  ret void
}